; Function Attrs: mustprogress uwtable
define hidden noundef ptr @_Z13mk_expr_namerR11ast_managerR13defined_namesR14expr_predicate(ptr noundef nonnull align 8 dereferenceable(976) %0, ptr noundef nonnull align 8 dereferenceable(16) %1, ptr noundef nonnull align 8 dereferenceable(8) %2) local_unnamed_addr #3 personality ptr @__gxx_personality_v0 {
  %4 = tail call noalias noundef ptr @_ZN6memory8allocateEm(i64 noundef 616)
  store ptr getelementptr inbounds nuw inrange(-16, 32) (i8, ptr @_ZTV15name_exprs_core, i64 16), ptr %4, align 8, !tbaa !3
  %5 = getelementptr inbounds nuw i8, ptr %4, i64 8
  store ptr %0, ptr %5, align 8, !tbaa !6
  %6 = getelementptr inbounds nuw i8, ptr %4, i64 16
  store ptr %1, ptr %6, align 8, !tbaa !10
  %7 = getelementptr inbounds nuw i8, ptr %4, i64 24
  store ptr %2, ptr %7, align 8, !tbaa !12
  %8 = getelementptr inbounds nuw i8, ptr %4, i64 32
  store ptr null, ptr %8, align 8, !tbaa !14
  %9 = getelementptr inbounds nuw i8, ptr %4, i64 40
  store ptr %0, ptr %9, align 8, !tbaa !6
  %10 = getelementptr inbounds nuw i8, ptr %4, i64 48
  store ptr null, ptr %10, align 8, !tbaa !14
  %11 = getelementptr inbounds nuw i8, ptr %4, i64 56
  store ptr %0, ptr %11, align 8, !tbaa !6
  %12 = getelementptr inbounds nuw i8, ptr %4, i64 64
  tail call void @llvm.memset.p0.i64(ptr noundef nonnull align 8 dereferenceable(16) %12, i8 0, i64 16, i1 false)
  %13 = getelementptr inbounds nuw i8, ptr %4, i64 80
  %14 = getelementptr inbounds nuw i8, ptr %0, i64 712
  %15 = load i32, ptr %14, align 8, !tbaa !17
  %16 = icmp ne i32 %15, 0
  invoke void @_ZN12rewriter_tplIN15name_exprs_core3cfgEEC2ER11ast_managerbRS1_(ptr noundef nonnull align 8 dereferenceable(536) %13, ptr noundef nonnull align 8 dereferenceable(976) %0, i1 noundef zeroext %16, ptr noundef nonnull align 8 dereferenceable(72) %5)
          to label %_ZN15name_exprs_coreC2ER11ast_managerR13defined_namesR14expr_predicate.exit unwind label %17

17:                                               ; preds = %3
  %18 = landingpad { ptr, i32 }
          cleanup
  tail call void @_ZN15name_exprs_core3cfgD2Ev(ptr noundef nonnull align 8 dereferenceable(72) %5) #18
  resume { ptr, i32 } %18

_ZN15name_exprs_coreC2ER11ast_managerR13defined_namesR14expr_predicate.exit: ; preds = %3
  ret ptr %4
}